target datalayout = "e-m:e-p270:32:32-p271:32:32-p272:64:64-i64:64-i128:128-f80:128-n8:16:32:64-S128"
target triple = "x86_64-pc-linux-gnu"

%struct.ForEachState = type { ptr, i32 }
%struct.PlannerInfo = type { i32, ptr, ptr, i32, ptr, ptr, ptr, ptr, i32, ptr, ptr, ptr, ptr, ptr, ptr, ptr, ptr, i32, ptr, ptr, ptr, ptr, ptr, i8, ptr, ptr, ptr, ptr, ptr, i32, ptr, ptr, ptr, ptr, ptr, ptr, ptr, i32, ptr, ptr, ptr, i32, ptr, ptr, ptr, ptr, ptr, ptr, [8 x ptr], [8 x ptr], ptr, ptr, ptr, ptr, ptr, ptr, ptr, double, double, double, i32, i8, i8, i8, i8, i8, i8, i8, i32, ptr, ptr, i32, i8, i8, i32, ptr, ptr, ptr, ptr, ptr, ptr, i8, ptr }
%struct.List = type { i32, i32, i32, ptr, [0 x %union.ListCell] }
%union.ListCell = type { ptr }
%struct.RelOptInfo = type { i32, i32, ptr, double, i8, i8, i8, ptr, ptr, ptr, ptr, ptr, ptr, ptr, ptr, ptr, ptr, i32, i32, i32, i16, i16, ptr, ptr, ptr, ptr, ptr, ptr, ptr, ptr, i32, double, double, ptr, ptr, ptr, i32, i32, i32, i32, i8, ptr, ptr, ptr, ptr, ptr, %struct.QualCost, i32, ptr, i8, i8, ptr, ptr, ptr, ptr, i32, ptr, i8, ptr, ptr, ptr, ptr, ptr, ptr }
%struct.QualCost = type { double, double }
%struct.Expr = type { i32 }
%struct.RestrictInfo = type { i32, ptr, i8, i8, i8, i8, i8, i8, i32, i32, i32, ptr, ptr, ptr, ptr, ptr, ptr, ptr, i32, ptr, %struct.QualCost, double, double, ptr, ptr, ptr, ptr, ptr, ptr, i8, i32, double, double, double, double, i32, i32 }
%struct.Node = type { i32 }
%struct.RangeTblEntry = type { i32, ptr, ptr, i32, i32, i8, i8, i32, i32, ptr, ptr, i8, i32, i32, ptr, ptr, ptr, ptr, ptr, i8, ptr, ptr, ptr, i32, i8, ptr, ptr, ptr, ptr, double, ptr, i8, i8, ptr }
%struct.OpExpr = type { %struct.Expr, i32, i32, i32, i8, i32, i32, ptr, i32 }
%struct.RelabelType = type { %struct.Expr, ptr, i32, i32, i32, i32, i32 }
%struct.Var = type { %struct.Expr, i32, i16, i32, i32, i32, ptr, i32, i32, i32, i16, i32 }

; Function Attrs: inlinehint nounwind uwtable
define internal ptr @list_nth_cell(ptr noundef %0, i32 noundef %1) #5 {
  %3 = alloca ptr, align 8
  %4 = alloca i32, align 4
  store ptr %0, ptr %3, align 8
  store i32 %1, ptr %4, align 4
  %5 = load ptr, ptr %3, align 8
  %6 = getelementptr inbounds nuw %struct.List, ptr %5, i32 0, i32 3
  %7 = load ptr, ptr %6, align 8
  %8 = load i32, ptr %4, align 4
  %9 = sext i32 %8 to i64
  %10 = getelementptr inbounds %union.ListCell, ptr %7, i64 %9
  ret ptr %10
}

; Function Attrs: inlinehint nounwind uwtable
define internal i32 @list_length(ptr noundef %0) #5 {
  %2 = alloca ptr, align 8
  store ptr %0, ptr %2, align 8
  %3 = load ptr, ptr %2, align 8
  %4 = icmp ne ptr %3, null
  br i1 %4, label %5, label %9

5:                                                ; preds = %1
  %6 = load ptr, ptr %2, align 8
  %7 = getelementptr inbounds nuw %struct.List, ptr %6, i32 0, i32 1
  %8 = load i32, ptr %7, align 4
  br label %10

9:                                                ; preds = %1
  br label %10

10:                                               ; preds = %9, %5
  %11 = phi i32 [ %8, %5 ], [ 0, %9 ]
  ret i32 %11
}

; Function Attrs: inlinehint nounwind uwtable
define internal ptr @get_leftop(ptr noundef %0) #5 {
  %2 = alloca ptr, align 8
  %3 = alloca ptr, align 8
  %4 = alloca ptr, align 8
  %5 = alloca i32, align 4
  store ptr %0, ptr %3, align 8
  call void @llvm.lifetime.start.p0(i64 8, ptr %4) #7
  %6 = load ptr, ptr %3, align 8
  store ptr %6, ptr %4, align 8
  %7 = load ptr, ptr %4, align 8
  %8 = getelementptr inbounds nuw %struct.OpExpr, ptr %7, i32 0, i32 7
  %9 = load ptr, ptr %8, align 8
  %10 = icmp ne ptr %9, null
  br i1 %10, label %11, label %17

11:                                               ; preds = %1
  %12 = load ptr, ptr %4, align 8
  %13 = getelementptr inbounds nuw %struct.OpExpr, ptr %12, i32 0, i32 7
  %14 = load ptr, ptr %13, align 8
  %15 = call ptr @list_nth_cell(ptr noundef %14, i32 noundef 0)
  %16 = load ptr, ptr %15, align 8
  store ptr %16, ptr %2, align 8
  store i32 1, ptr %5, align 4
  br label %18

17:                                               ; preds = %1
  store ptr null, ptr %2, align 8
  store i32 1, ptr %5, align 4
  br label %18

18:                                               ; preds = %17, %11
  call void @llvm.lifetime.end.p0(i64 8, ptr %4) #7
  %19 = load ptr, ptr %2, align 8
  ret ptr %19
}

; Function Attrs: inlinehint nounwind uwtable
define internal ptr @get_rightop(ptr noundef %0) #5 {
  %2 = alloca ptr, align 8
  %3 = alloca ptr, align 8
  %4 = alloca ptr, align 8
  %5 = alloca i32, align 4
  store ptr %0, ptr %3, align 8
  call void @llvm.lifetime.start.p0(i64 8, ptr %4) #7
  %6 = load ptr, ptr %3, align 8
  store ptr %6, ptr %4, align 8
  %7 = load ptr, ptr %4, align 8
  %8 = getelementptr inbounds nuw %struct.OpExpr, ptr %7, i32 0, i32 7
  %9 = load ptr, ptr %8, align 8
  %10 = call i32 @list_length(ptr noundef %9)
  %11 = icmp sge i32 %10, 2
  br i1 %11, label %12, label %18

12:                                               ; preds = %1
  %13 = load ptr, ptr %4, align 8
  %14 = getelementptr inbounds nuw %struct.OpExpr, ptr %13, i32 0, i32 7
  %15 = load ptr, ptr %14, align 8
  %16 = call ptr @list_nth_cell(ptr noundef %15, i32 noundef 1)
  %17 = load ptr, ptr %16, align 8
  store ptr %17, ptr %2, align 8
  store i32 1, ptr %5, align 4
  br label %19

18:                                               ; preds = %1
  store ptr null, ptr %2, align 8
  store i32 1, ptr %5, align 4
  br label %19

19:                                               ; preds = %18, %12
  call void @llvm.lifetime.end.p0(i64 8, ptr %4) #7
  %20 = load ptr, ptr %2, align 8
  ret ptr %20
}

; Function Attrs: nounwind uwtable
define internal zeroext i1 @rel_is_distinct_for(ptr noundef %0, ptr noundef %1, ptr noundef %2, ptr noundef %3) #0 {
  %5 = alloca i1, align 1
  %6 = alloca ptr, align 8
  %7 = alloca ptr, align 8
  %8 = alloca ptr, align 8
  %9 = alloca ptr, align 8
  %10 = alloca i32, align 4
  %11 = alloca ptr, align 8
  %12 = alloca ptr, align 8
  %13 = alloca ptr, align 8
  %14 = alloca ptr, align 8
  %15 = alloca %struct.ForEachState, align 8
  %16 = alloca i32, align 4
  %17 = alloca ptr, align 8
  %18 = alloca i32, align 4
  %19 = alloca ptr, align 8
  store ptr %0, ptr %6, align 8
  store ptr %1, ptr %7, align 8
  store ptr %2, ptr %8, align 8
  store ptr %3, ptr %9, align 8
  %20 = load ptr, ptr %7, align 8
  %21 = getelementptr inbounds nuw %struct.RelOptInfo, ptr %20, i32 0, i32 1
  %22 = load i32, ptr %21, align 4
  %23 = icmp ne i32 %22, 0
  br i1 %23, label %24, label %25

24:                                               ; preds = %4
  store i1 false, ptr %5, align 1
  br label %169

25:                                               ; preds = %4
  %26 = load ptr, ptr %7, align 8
  %27 = getelementptr inbounds nuw %struct.RelOptInfo, ptr %26, i32 0, i32 19
  %28 = load i32, ptr %27, align 8
  %29 = icmp eq i32 %28, 0
  br i1 %29, label %30, label %38

30:                                               ; preds = %25
  %31 = load ptr, ptr %6, align 8
  %32 = load ptr, ptr %7, align 8
  %33 = load ptr, ptr %8, align 8
  %34 = load ptr, ptr %9, align 8
  %35 = call zeroext i1 @relation_has_unique_index_ext(ptr noundef %31, ptr noundef %32, ptr noundef %33, ptr noundef null, ptr noundef null, ptr noundef %34)
  br i1 %35, label %36, label %37

36:                                               ; preds = %30
  store i1 true, ptr %5, align 1
  br label %169

37:                                               ; preds = %30
  br label %168

38:                                               ; preds = %25
  %39 = load ptr, ptr %7, align 8
  %40 = getelementptr inbounds nuw %struct.RelOptInfo, ptr %39, i32 0, i32 19
  %41 = load i32, ptr %40, align 8
  %42 = icmp eq i32 %41, 1
  br i1 %42, label %43, label %167

43:                                               ; preds = %38
  call void @llvm.lifetime.start.p0(i64 4, ptr %10) #7
  %44 = load ptr, ptr %7, align 8
  %45 = getelementptr inbounds nuw %struct.RelOptInfo, ptr %44, i32 0, i32 17
  %46 = load i32, ptr %45, align 8
  store i32 %46, ptr %10, align 4
  call void @llvm.lifetime.start.p0(i64 8, ptr %11) #7
  %47 = load ptr, ptr %6, align 8
  %48 = getelementptr inbounds nuw %struct.PlannerInfo, ptr %47, i32 0, i32 9
  %49 = load ptr, ptr %48, align 8
  %50 = load i32, ptr %10, align 4
  %51 = zext i32 %50 to i64
  %52 = getelementptr inbounds nuw ptr, ptr %49, i64 %51
  %53 = load ptr, ptr %52, align 8
  %54 = getelementptr inbounds nuw %struct.RangeTblEntry, ptr %53, i32 0, i32 10
  %55 = load ptr, ptr %54, align 8
  store ptr %55, ptr %11, align 8
  call void @llvm.lifetime.start.p0(i64 8, ptr %12) #7
  store ptr null, ptr %12, align 8
  call void @llvm.lifetime.start.p0(i64 8, ptr %13) #7
  store ptr null, ptr %13, align 8
  call void @llvm.lifetime.start.p0(i64 8, ptr %14) #7
  call void @llvm.lifetime.start.p0(i64 16, ptr %15) #7
  %56 = getelementptr inbounds nuw %struct.ForEachState, ptr %15, i32 0, i32 0
  %57 = load ptr, ptr %8, align 8
  store ptr %57, ptr %56, align 8
  %58 = getelementptr inbounds nuw %struct.ForEachState, ptr %15, i32 0, i32 1
  store i32 0, ptr %58, align 8
  %59 = getelementptr i8, ptr %15, i64 12
  call void @llvm.memset.p0.i64(ptr align 4 %59, i8 0, i64 4, i1 false)
  br label %60

60:                                               ; preds = %153, %43
  %61 = getelementptr inbounds nuw %struct.ForEachState, ptr %15, i32 0, i32 0
  %62 = load ptr, ptr %61, align 8
  %63 = icmp ne ptr %62, null
  br i1 %63, label %64, label %81

64:                                               ; preds = %60
  %65 = getelementptr inbounds nuw %struct.ForEachState, ptr %15, i32 0, i32 1
  %66 = load i32, ptr %65, align 8
  %67 = getelementptr inbounds nuw %struct.ForEachState, ptr %15, i32 0, i32 0
  %68 = load ptr, ptr %67, align 8
  %69 = getelementptr inbounds nuw %struct.List, ptr %68, i32 0, i32 1
  %70 = load i32, ptr %69, align 4
  %71 = icmp slt i32 %66, %70
  br i1 %71, label %72, label %81

72:                                               ; preds = %64
  %73 = getelementptr inbounds nuw %struct.ForEachState, ptr %15, i32 0, i32 0
  %74 = load ptr, ptr %73, align 8
  %75 = getelementptr inbounds nuw %struct.List, ptr %74, i32 0, i32 3
  %76 = load ptr, ptr %75, align 8
  %77 = getelementptr inbounds nuw %struct.ForEachState, ptr %15, i32 0, i32 1
  %78 = load i32, ptr %77, align 8
  %79 = sext i32 %78 to i64
  %80 = getelementptr inbounds %union.ListCell, ptr %76, i64 %79
  store ptr %80, ptr %14, align 8
  br label %82

81:                                               ; preds = %64, %60
  store ptr null, ptr %14, align 8
  br label %82

82:                                               ; preds = %81, %72
  %83 = phi i32 [ 1, %72 ], [ 0, %81 ]
  %84 = icmp ne i32 %83, 0
  br i1 %84, label %86, label %85

85:                                               ; preds = %82
  store i32 2, ptr %16, align 4
  call void @llvm.lifetime.end.p0(i64 16, ptr %15) #7
  br label %157

86:                                               ; preds = %82
  call void @llvm.lifetime.start.p0(i64 8, ptr %17) #7
  %87 = load ptr, ptr %14, align 8
  %88 = load ptr, ptr %87, align 8
  store ptr %88, ptr %17, align 8
  call void @llvm.lifetime.start.p0(i64 4, ptr %18) #7
  call void @llvm.lifetime.start.p0(i64 8, ptr %19) #7
  %89 = load ptr, ptr %17, align 8
  %90 = getelementptr inbounds nuw %struct.RestrictInfo, ptr %89, i32 0, i32 1
  %91 = load ptr, ptr %90, align 8
  %92 = getelementptr inbounds nuw %struct.OpExpr, ptr %91, i32 0, i32 1
  %93 = load i32, ptr %92, align 4
  store i32 %93, ptr %18, align 4
  %94 = load ptr, ptr %17, align 8
  %95 = getelementptr inbounds nuw %struct.RestrictInfo, ptr %94, i32 0, i32 29
  %96 = load i8, ptr %95, align 8, !range !8, !noundef !9
  %97 = trunc i8 %96 to i1
  br i1 %97, label %98, label %103

98:                                               ; preds = %86
  %99 = load ptr, ptr %17, align 8
  %100 = getelementptr inbounds nuw %struct.RestrictInfo, ptr %99, i32 0, i32 1
  %101 = load ptr, ptr %100, align 8
  %102 = call ptr @get_rightop(ptr noundef %101)
  store ptr %102, ptr %19, align 8
  br label %108

103:                                              ; preds = %86
  %104 = load ptr, ptr %17, align 8
  %105 = getelementptr inbounds nuw %struct.RestrictInfo, ptr %104, i32 0, i32 1
  %106 = load ptr, ptr %105, align 8
  %107 = call ptr @get_leftop(ptr noundef %106)
  store ptr %107, ptr %19, align 8
  br label %108

108:                                              ; preds = %103, %98
  %109 = load ptr, ptr %19, align 8
  %110 = icmp ne ptr %109, null
  br i1 %110, label %111, label %120

111:                                              ; preds = %108
  %112 = load ptr, ptr %19, align 8
  %113 = getelementptr inbounds nuw %struct.Node, ptr %112, i32 0, i32 0
  %114 = load i32, ptr %113, align 4
  %115 = icmp eq i32 %114, 27
  br i1 %115, label %116, label %120

116:                                              ; preds = %111
  %117 = load ptr, ptr %19, align 8
  %118 = getelementptr inbounds nuw %struct.RelabelType, ptr %117, i32 0, i32 1
  %119 = load ptr, ptr %118, align 8
  store ptr %119, ptr %19, align 8
  br label %120

120:                                              ; preds = %116, %111, %108
  %121 = load ptr, ptr %19, align 8
  %122 = icmp ne ptr %121, null
  br i1 %122, label %123, label %139

123:                                              ; preds = %120
  %124 = load ptr, ptr %19, align 8
  %125 = getelementptr inbounds nuw %struct.Node, ptr %124, i32 0, i32 0
  %126 = load i32, ptr %125, align 4
  %127 = icmp eq i32 %126, 6
  br i1 %127, label %128, label %139

128:                                              ; preds = %123
  %129 = load ptr, ptr %19, align 8
  %130 = getelementptr inbounds nuw %struct.Var, ptr %129, i32 0, i32 1
  %131 = load i32, ptr %130, align 4
  %132 = load i32, ptr %10, align 4
  %133 = icmp ne i32 %131, %132
  br i1 %133, label %139, label %134

134:                                              ; preds = %128
  %135 = load ptr, ptr %19, align 8
  %136 = getelementptr inbounds nuw %struct.Var, ptr %135, i32 0, i32 7
  %137 = load i32, ptr %136, align 8
  %138 = icmp ne i32 %137, 0
  br i1 %138, label %139, label %140

139:                                              ; preds = %134, %128, %123, %120
  store i32 4, ptr %16, align 4
  br label %150

140:                                              ; preds = %134
  %141 = load ptr, ptr %12, align 8
  %142 = load ptr, ptr %19, align 8
  %143 = getelementptr inbounds nuw %struct.Var, ptr %142, i32 0, i32 2
  %144 = load i16, ptr %143, align 8
  %145 = sext i16 %144 to i32
  %146 = call ptr @lappend_int(ptr noundef %141, i32 noundef %145)
  store ptr %146, ptr %12, align 8
  %147 = load ptr, ptr %13, align 8
  %148 = load i32, ptr %18, align 4
  %149 = call ptr @lappend_oid(ptr noundef %147, i32 noundef %148)
  store ptr %149, ptr %13, align 8
  store i32 0, ptr %16, align 4
  br label %150

150:                                              ; preds = %140, %139
  call void @llvm.lifetime.end.p0(i64 8, ptr %19) #7
  call void @llvm.lifetime.end.p0(i64 4, ptr %18) #7
  call void @llvm.lifetime.end.p0(i64 8, ptr %17) #7
  %151 = load i32, ptr %16, align 4
  switch i32 %151, label %171 [
    i32 0, label %152
    i32 4, label %153
  ]

152:                                              ; preds = %150
  br label %153

153:                                              ; preds = %152, %150
  %154 = getelementptr inbounds nuw %struct.ForEachState, ptr %15, i32 0, i32 1
  %155 = load i32, ptr %154, align 8
  %156 = add i32 %155, 1
  store i32 %156, ptr %154, align 8
  br label %60, !llvm.loop !28

157:                                              ; preds = %85
  %158 = load ptr, ptr %11, align 8
  %159 = load ptr, ptr %12, align 8
  %160 = load ptr, ptr %13, align 8
  %161 = call zeroext i1 @query_is_distinct_for(ptr noundef %158, ptr noundef %159, ptr noundef %160)
  br i1 %161, label %162, label %163

162:                                              ; preds = %157
  store i1 true, ptr %5, align 1
  store i32 1, ptr %16, align 4
  br label %164

163:                                              ; preds = %157
  store i32 0, ptr %16, align 4
  br label %164

164:                                              ; preds = %163, %162
  call void @llvm.lifetime.end.p0(i64 8, ptr %14) #7
  call void @llvm.lifetime.end.p0(i64 8, ptr %13) #7
  call void @llvm.lifetime.end.p0(i64 8, ptr %12) #7
  call void @llvm.lifetime.end.p0(i64 8, ptr %11) #7
  call void @llvm.lifetime.end.p0(i64 4, ptr %10) #7
  %165 = load i32, ptr %16, align 4
  switch i32 %165, label %171 [
    i32 0, label %166
    i32 1, label %169
  ]

166:                                              ; preds = %164
  br label %167

167:                                              ; preds = %166, %38
  br label %168

168:                                              ; preds = %167, %37
  store i1 false, ptr %5, align 1
  br label %169

169:                                              ; preds = %168, %164, %36, %24
  %170 = load i1, ptr %5, align 1
  ret i1 %170

171:                                              ; preds = %164, %150
  unreachable
}