; Function Attrs: nounwind uwtable
define internal fastcc noundef zeroext i1 @rel_is_distinct_for(ptr noundef %0, ptr noundef %1, ptr noundef %2, ptr noundef %3) unnamed_addr #0 {
  %5 = getelementptr inbounds nuw i8, ptr %1, i64 4
  %6 = load i32, ptr %5, align 4
  %.not = icmp eq i32 %6, 0
  br i1 %.not, label %7, label %72

7:                                                ; preds = %4
  %8 = getelementptr inbounds nuw i8, ptr %1, i64 120
  %9 = load i32, ptr %8, align 8
  switch i32 %9, label %71 [
    i32 0, label %10
    i32 1, label %12
  ]

10:                                               ; preds = %7
  %11 = tail call zeroext i1 @relation_has_unique_index_ext(ptr noundef %0, ptr noundef nonnull %1, ptr noundef %2, ptr noundef null, ptr noundef null, ptr noundef %3) #7
  br i1 %11, label %72, label %71

12:                                               ; preds = %7
  %13 = getelementptr inbounds nuw i8, ptr %1, i64 112
  %14 = load i32, ptr %13, align 8
  %15 = getelementptr inbounds nuw i8, ptr %0, i64 72
  %16 = load ptr, ptr %15, align 8
  %17 = zext i32 %14 to i64
  %18 = getelementptr inbounds nuw ptr, ptr %16, i64 %17
  %19 = load ptr, ptr %18, align 8
  %20 = getelementptr inbounds nuw i8, ptr %19, i64 56
  %21 = load ptr, ptr %20, align 8
  %22 = getelementptr inbounds nuw i8, ptr %2, i64 4
  %.not46 = icmp eq ptr %2, null
  br i1 %.not46, label %._crit_edge, label %.lr.ph

.lr.ph:                                           ; preds = %12
  %23 = getelementptr inbounds nuw i8, ptr %2, i64 16
  %24 = load i32, ptr %22, align 4
  %25 = icmp sgt i32 %24, 0
  br i1 %25, label %.lr.ph78, label %._crit_edge

._crit_edge:                                      ; preds = %.thread60, %.lr.ph, %12
  %.041.lcssa = phi ptr [ null, %12 ], [ null, %.lr.ph ], [ %.142, %.thread60 ]
  %.038.lcssa = phi ptr [ null, %12 ], [ null, %.lr.ph ], [ %.139, %.thread60 ]
  %26 = tail call zeroext i1 @query_is_distinct_for(ptr noundef %21, ptr noundef %.038.lcssa, ptr noundef %.041.lcssa)
  br i1 %26, label %72, label %71

.lr.ph78:                                         ; preds = %.lr.ph, %.thread60
  %.0416877 = phi ptr [ %.142, %.thread60 ], [ null, %.lr.ph ]
  %.0386976 = phi ptr [ %.139, %.thread60 ], [ null, %.lr.ph ]
  %indvars.iv75 = phi i64 [ %indvars.iv.next, %.thread60 ], [ 0, %.lr.ph ]
  %27 = load ptr, ptr %23, align 8
  %28 = getelementptr inbounds nuw %union.ListCell, ptr %27, i64 %indvars.iv75
  %29 = load ptr, ptr %28, align 8
  %30 = getelementptr inbounds nuw i8, ptr %29, i64 8
  %31 = load ptr, ptr %30, align 8
  %32 = getelementptr inbounds nuw i8, ptr %31, i64 4
  %33 = load i32, ptr %32, align 4
  %34 = getelementptr inbounds nuw i8, ptr %29, i64 192
  %35 = load i8, ptr %34, align 8, !range !4, !noundef !5
  %36 = trunc nuw i8 %35 to i1
  %37 = getelementptr i8, ptr %31, i64 32
  %.val = load ptr, ptr %37, align 8
  %.not.i.i = icmp eq ptr %.val, null
  br i1 %36, label %38, label %45

38:                                               ; preds = %.lr.ph78
  br i1 %.not.i.i, label %.thread60, label %list_length.exit.i

list_length.exit.i:                               ; preds = %38
  %39 = getelementptr inbounds nuw i8, ptr %.val, i64 4
  %40 = load i32, ptr %39, align 4
  %41 = icmp sgt i32 %40, 1
  br i1 %41, label %42, label %.thread60

42:                                               ; preds = %list_length.exit.i
  %43 = getelementptr i8, ptr %.val, i64 16
  %.val.i = load ptr, ptr %43, align 8
  %44 = getelementptr inbounds nuw i8, ptr %.val.i, i64 8
  br label %get_rightop.exit

45:                                               ; preds = %.lr.ph78
  br i1 %.not.i.i, label %.thread60, label %46

46:                                               ; preds = %45
  %47 = getelementptr i8, ptr %.val, i64 16
  %.val.i53 = load ptr, ptr %47, align 8
  br label %get_rightop.exit

get_rightop.exit:                                 ; preds = %46, %42
  %.0.in = phi ptr [ %44, %42 ], [ %.val.i53, %46 ]
  %.0 = load ptr, ptr %.0.in, align 8
  %.not48 = icmp eq ptr %.0, null
  br i1 %.not48, label %.thread60, label %48

48:                                               ; preds = %get_rightop.exit
  %49 = load i32, ptr %.0, align 4
  %50 = icmp eq i32 %49, 27
  br i1 %50, label %51, label %.thread63

51:                                               ; preds = %48
  %52 = getelementptr inbounds nuw i8, ptr %.0, i64 8
  %53 = load ptr, ptr %52, align 8
  %.not49 = icmp eq ptr %53, null
  br i1 %.not49, label %.thread60, label %thread-pre-split

thread-pre-split:                                 ; preds = %51
  %.pr = load i32, ptr %53, align 4
  br label %.thread63

.thread63:                                        ; preds = %48, %thread-pre-split
  %54 = phi i32 [ %.pr, %thread-pre-split ], [ %49, %48 ]
  %.166 = phi ptr [ %53, %thread-pre-split ], [ %.0, %48 ]
  %55 = icmp eq i32 %54, 6
  br i1 %55, label %56, label %.thread60

56:                                               ; preds = %.thread63
  %57 = getelementptr inbounds nuw i8, ptr %.166, i64 4
  %58 = load i32, ptr %57, align 4
  %.not50 = icmp eq i32 %58, %14
  br i1 %.not50, label %59, label %.thread60

59:                                               ; preds = %56
  %60 = getelementptr inbounds nuw i8, ptr %.166, i64 32
  %61 = load i32, ptr %60, align 8
  %.not51 = icmp eq i32 %61, 0
  br i1 %.not51, label %62, label %.thread60

62:                                               ; preds = %59
  %63 = getelementptr inbounds nuw i8, ptr %.166, i64 8
  %64 = load i16, ptr %63, align 8
  %65 = sext i16 %64 to i32
  %66 = tail call ptr @lappend_int(ptr noundef %.0386976, i32 noundef %65) #7
  %67 = tail call ptr @lappend_oid(ptr noundef %.0416877, i32 noundef %33) #7
  br label %.thread60

.thread60:                                        ; preds = %45, %38, %list_length.exit.i, %get_rightop.exit, %51, %.thread63, %56, %59, %62
  %.142 = phi ptr [ %67, %62 ], [ %.0416877, %59 ], [ %.0416877, %56 ], [ %.0416877, %.thread63 ], [ %.0416877, %51 ], [ %.0416877, %get_rightop.exit ], [ %.0416877, %list_length.exit.i ], [ %.0416877, %38 ], [ %.0416877, %45 ]
  %.139 = phi ptr [ %66, %62 ], [ %.0386976, %59 ], [ %.0386976, %56 ], [ %.0386976, %.thread63 ], [ %.0386976, %51 ], [ %.0386976, %get_rightop.exit ], [ %.0386976, %list_length.exit.i ], [ %.0386976, %38 ], [ %.0386976, %45 ]
  %indvars.iv.next = add nuw nsw i64 %indvars.iv75, 1
  %68 = load i32, ptr %22, align 4
  %69 = sext i32 %68 to i64
  %70 = icmp slt i64 %indvars.iv.next, %69
  br i1 %70, label %.lr.ph78, label %._crit_edge

71:                                               ; preds = %._crit_edge, %7, %10
  br label %72

72:                                               ; preds = %._crit_edge, %10, %4, %71
  %.036 = phi i1 [ false, %71 ], [ true, %._crit_edge ], [ false, %4 ], [ true, %10 ]
  ret i1 %.036
}